(dp0
Vengine
p1
Vpdflatex
p2
sVpackages
p3
c__builtin__
set
p4
((lp5
tp6
Rp7
sVfiles_with_guttermarks
p8
g4
((lp9
V/Users/tranvinhduc/Dropbox/Works/1Teaching/1Bach Khoa/Co\u0302ng vie\u0323\u0302c chung/Chuongtrinhdaotao/template-slides/beamer-soict/./main.tex
p10
aS'main.tex'
p11
atp12
Rp13
sVsynctex
p14
I01
s.